target datalayout = "e-m:e-p270:32:32-p271:32:32-p272:64:64-i64:64-i128:128-f80:128-n8:16:32:64-S128"
target triple = "x86_64-pc-linux-gnu"

; Function Attrs: nounwind uwtable
define float @stbtt__cuberoot(float noundef %0) #0 {
  %2 = alloca float, align 4
  %3 = alloca float, align 4
  store float %0, ptr %3, align 4, !tbaa !67
  %4 = load float, ptr %3, align 4, !tbaa !67
  %5 = fcmp olt float %4, 0.000000e+00
  br i1 %5, label %6, label %13

6:                                                ; preds = %1
  %7 = load float, ptr %3, align 4, !tbaa !67
  %8 = fneg float %7
  %9 = fpext float %8 to double
  %10 = call double @pow(double noundef %9, double noundef 0x3FD5555560000000) #8, !tbaa !14
  %11 = fptrunc double %10 to float
  %12 = fneg float %11
  store float %12, ptr %2, align 4
  br label %18

13:                                               ; preds = %1
  %14 = load float, ptr %3, align 4, !tbaa !67
  %15 = fpext float %14 to double
  %16 = call double @pow(double noundef %15, double noundef 0x3FD5555560000000) #8, !tbaa !14
  %17 = fptrunc double %16 to float
  store float %17, ptr %2, align 4
  br label %18

18:                                               ; preds = %13, %6
  %19 = load float, ptr %2, align 4
  ret float %19
}

; Function Attrs: nounwind uwtable
define i32 @stbtt__solve_cubic(float noundef %0, float noundef %1, float noundef %2, ptr noundef %3) #0 {
  %5 = alloca i32, align 4
  %6 = alloca float, align 4
  %7 = alloca float, align 4
  %8 = alloca float, align 4
  %9 = alloca ptr, align 8
  %10 = alloca float, align 4
  %11 = alloca float, align 4
  %12 = alloca float, align 4
  %13 = alloca float, align 4
  %14 = alloca float, align 4
  %15 = alloca float, align 4
  %16 = alloca float, align 4
  %17 = alloca float, align 4
  %18 = alloca i32, align 4
  %19 = alloca float, align 4
  %20 = alloca float, align 4
  %21 = alloca float, align 4
  %22 = alloca float, align 4
  store float %0, ptr %6, align 4, !tbaa !67
  store float %1, ptr %7, align 4, !tbaa !67
  store float %2, ptr %8, align 4, !tbaa !67
  store ptr %3, ptr %9, align 8, !tbaa !133
  call void @llvm.lifetime.start.p0(i64 4, ptr %10) #8
  %23 = load float, ptr %6, align 4, !tbaa !67
  %24 = fneg float %23
  %25 = fdiv float %24, 3.000000e+00
  store float %25, ptr %10, align 4, !tbaa !67
  call void @llvm.lifetime.start.p0(i64 4, ptr %11) #8
  %26 = load float, ptr %7, align 4, !tbaa !67
  %27 = load float, ptr %6, align 4, !tbaa !67
  %28 = load float, ptr %6, align 4, !tbaa !67
  %29 = fmul float %27, %28
  %30 = fdiv float %29, 3.000000e+00
  %31 = fsub float %26, %30
  store float %31, ptr %11, align 4, !tbaa !67
  call void @llvm.lifetime.start.p0(i64 4, ptr %12) #8
  %32 = load float, ptr %6, align 4, !tbaa !67
  %33 = load float, ptr %6, align 4, !tbaa !67
  %34 = fmul float 2.000000e+00, %33
  %35 = load float, ptr %6, align 4, !tbaa !67
  %36 = load float, ptr %7, align 4, !tbaa !67
  %37 = fmul float 9.000000e+00, %36
  %38 = fneg float %37
  %39 = call float @llvm.fmuladd.f32(float %34, float %35, float %38)
  %40 = fmul float %32, %39
  %41 = fdiv float %40, 2.700000e+01
  %42 = load float, ptr %8, align 4, !tbaa !67
  %43 = fadd float %41, %42
  store float %43, ptr %12, align 4, !tbaa !67
  call void @llvm.lifetime.start.p0(i64 4, ptr %13) #8
  %44 = load float, ptr %11, align 4, !tbaa !67
  %45 = load float, ptr %11, align 4, !tbaa !67
  %46 = fmul float %44, %45
  %47 = load float, ptr %11, align 4, !tbaa !67
  %48 = fmul float %46, %47
  store float %48, ptr %13, align 4, !tbaa !67
  call void @llvm.lifetime.start.p0(i64 4, ptr %14) #8
  %49 = load float, ptr %12, align 4, !tbaa !67
  %50 = load float, ptr %12, align 4, !tbaa !67
  %51 = load float, ptr %13, align 4, !tbaa !67
  %52 = fmul float 4.000000e+00, %51
  %53 = fdiv float %52, 2.700000e+01
  %54 = call float @llvm.fmuladd.f32(float %49, float %50, float %53)
  store float %54, ptr %14, align 4, !tbaa !67
  %55 = load float, ptr %14, align 4, !tbaa !67
  %56 = fcmp oge float %55, 0.000000e+00
  br i1 %56, label %57, label %83

57:                                               ; preds = %4
  call void @llvm.lifetime.start.p0(i64 4, ptr %15) #8
  %58 = load float, ptr %14, align 4, !tbaa !67
  %59 = fpext float %58 to double
  %60 = call double @sqrt(double noundef %59) #8, !tbaa !14
  %61 = fptrunc double %60 to float
  store float %61, ptr %15, align 4, !tbaa !67
  call void @llvm.lifetime.start.p0(i64 4, ptr %16) #8
  %62 = load float, ptr %12, align 4, !tbaa !67
  %63 = fneg float %62
  %64 = load float, ptr %15, align 4, !tbaa !67
  %65 = fadd float %63, %64
  %66 = fdiv float %65, 2.000000e+00
  store float %66, ptr %16, align 4, !tbaa !67
  call void @llvm.lifetime.start.p0(i64 4, ptr %17) #8
  %67 = load float, ptr %12, align 4, !tbaa !67
  %68 = fneg float %67
  %69 = load float, ptr %15, align 4, !tbaa !67
  %70 = fsub float %68, %69
  %71 = fdiv float %70, 2.000000e+00
  store float %71, ptr %17, align 4, !tbaa !67
  %72 = load float, ptr %16, align 4, !tbaa !67
  %73 = call float @stbtt__cuberoot(float noundef %72)
  store float %73, ptr %16, align 4, !tbaa !67
  %74 = load float, ptr %17, align 4, !tbaa !67
  %75 = call float @stbtt__cuberoot(float noundef %74)
  store float %75, ptr %17, align 4, !tbaa !67
  %76 = load float, ptr %10, align 4, !tbaa !67
  %77 = load float, ptr %16, align 4, !tbaa !67
  %78 = fadd float %76, %77
  %79 = load float, ptr %17, align 4, !tbaa !67
  %80 = fadd float %78, %79
  %81 = load ptr, ptr %9, align 8, !tbaa !133
  %82 = getelementptr inbounds float, ptr %81, i64 0
  store float %80, ptr %82, align 4, !tbaa !67
  store i32 1, ptr %5, align 4
  store i32 1, ptr %18, align 4
  call void @llvm.lifetime.end.p0(i64 4, ptr %17) #8
  call void @llvm.lifetime.end.p0(i64 4, ptr %16) #8
  call void @llvm.lifetime.end.p0(i64 4, ptr %15) #8
  br label %137

83:                                               ; preds = %4
  call void @llvm.lifetime.start.p0(i64 4, ptr %19) #8
  %84 = load float, ptr %11, align 4, !tbaa !67
  %85 = fneg float %84
  %86 = fdiv float %85, 3.000000e+00
  %87 = fpext float %86 to double
  %88 = call double @sqrt(double noundef %87) #8, !tbaa !14
  %89 = fptrunc double %88 to float
  store float %89, ptr %19, align 4, !tbaa !67
  call void @llvm.lifetime.start.p0(i64 4, ptr %20) #8
  %90 = load float, ptr %13, align 4, !tbaa !67
  %91 = fdiv float -2.700000e+01, %90
  %92 = fpext float %91 to double
  %93 = call double @sqrt(double noundef %92) #8, !tbaa !14
  %94 = fneg double %93
  %95 = load float, ptr %12, align 4, !tbaa !67
  %96 = fpext float %95 to double
  %97 = fmul double %94, %96
  %98 = fdiv double %97, 2.000000e+00
  %99 = call double @acos(double noundef %98) #8, !tbaa !14
  %100 = fptrunc double %99 to float
  %101 = fdiv float %100, 3.000000e+00
  store float %101, ptr %20, align 4, !tbaa !67
  call void @llvm.lifetime.start.p0(i64 4, ptr %21) #8
  %102 = load float, ptr %20, align 4, !tbaa !67
  %103 = fpext float %102 to double
  %104 = call double @cos(double noundef %103) #8, !tbaa !14
  %105 = fptrunc double %104 to float
  store float %105, ptr %21, align 4, !tbaa !67
  call void @llvm.lifetime.start.p0(i64 4, ptr %22) #8
  %106 = load float, ptr %20, align 4, !tbaa !67
  %107 = fpext float %106 to double
  %108 = fsub double %107, 0x3FF921FAFC8B007A
  %109 = call double @cos(double noundef %108) #8, !tbaa !14
  %110 = fptrunc double %109 to float
  %111 = fmul float %110, 0x3FFBB67AE0000000
  store float %111, ptr %22, align 4, !tbaa !67
  %112 = load float, ptr %10, align 4, !tbaa !67
  %113 = load float, ptr %19, align 4, !tbaa !67
  %114 = fmul float %113, 2.000000e+00
  %115 = load float, ptr %21, align 4, !tbaa !67
  %116 = call float @llvm.fmuladd.f32(float %114, float %115, float %112)
  %117 = load ptr, ptr %9, align 8, !tbaa !133
  %118 = getelementptr inbounds float, ptr %117, i64 0
  store float %116, ptr %118, align 4, !tbaa !67
  %119 = load float, ptr %10, align 4, !tbaa !67
  %120 = load float, ptr %19, align 4, !tbaa !67
  %121 = load float, ptr %21, align 4, !tbaa !67
  %122 = load float, ptr %22, align 4, !tbaa !67
  %123 = fadd float %121, %122
  %124 = fneg float %120
  %125 = call float @llvm.fmuladd.f32(float %124, float %123, float %119)
  %126 = load ptr, ptr %9, align 8, !tbaa !133
  %127 = getelementptr inbounds float, ptr %126, i64 1
  store float %125, ptr %127, align 4, !tbaa !67
  %128 = load float, ptr %10, align 4, !tbaa !67
  %129 = load float, ptr %19, align 4, !tbaa !67
  %130 = load float, ptr %21, align 4, !tbaa !67
  %131 = load float, ptr %22, align 4, !tbaa !67
  %132 = fsub float %130, %131
  %133 = fneg float %129
  %134 = call float @llvm.fmuladd.f32(float %133, float %132, float %128)
  %135 = load ptr, ptr %9, align 8, !tbaa !133
  %136 = getelementptr inbounds float, ptr %135, i64 2
  store float %134, ptr %136, align 4, !tbaa !67
  store i32 3, ptr %5, align 4
  store i32 1, ptr %18, align 4
  call void @llvm.lifetime.end.p0(i64 4, ptr %22) #8
  call void @llvm.lifetime.end.p0(i64 4, ptr %21) #8
  call void @llvm.lifetime.end.p0(i64 4, ptr %20) #8
  call void @llvm.lifetime.end.p0(i64 4, ptr %19) #8
  br label %137

137:                                              ; preds = %83, %57
  call void @llvm.lifetime.end.p0(i64 4, ptr %14) #8
  call void @llvm.lifetime.end.p0(i64 4, ptr %13) #8
  call void @llvm.lifetime.end.p0(i64 4, ptr %12) #8
  call void @llvm.lifetime.end.p0(i64 4, ptr %11) #8
  call void @llvm.lifetime.end.p0(i64 4, ptr %10) #8
  %138 = load i32, ptr %5, align 4
  ret i32 %138
}