; Function Attrs: mustprogress nofree nounwind willreturn memory(write) uwtable
define range(i32 1, 4) i32 @stbtt__solve_cubic(float noundef %0, float noundef %1, float noundef %2, ptr noundef writeonly captures(none) initializes((0, 4)) %3) local_unnamed_addr #28 {
  %5 = fdiv float %0, -3.000000e+00
  %6 = fmul float %0, %0
  %7 = fdiv float %6, 3.000000e+00
  %8 = fsub float %1, %7
  %9 = fmul float %0, 2.000000e+00
  %10 = fmul float %1, -9.000000e+00
  %11 = tail call float @llvm.fmuladd.f32(float %9, float %0, float %10)
  %12 = fmul float %0, %11
  %13 = fdiv float %12, 2.700000e+01
  %14 = fadd float %2, %13
  %15 = fmul float %8, %8
  %16 = fmul float %8, %15
  %17 = fmul float %16, 4.000000e+00
  %18 = fdiv float %17, 2.700000e+01
  %19 = tail call float @llvm.fmuladd.f32(float %14, float %14, float %18)
  %20 = fcmp ult float %19, 0.000000e+00
  br i1 %20, label %51, label %21

21:                                               ; preds = %4
  %sqrtf47 = tail call float @sqrtf(float noundef %19) #15
  %22 = fneg float %14
  %23 = fsub float %sqrtf47, %14
  %24 = fmul float %23, 5.000000e-01
  %25 = fsub float %22, %sqrtf47
  %26 = fmul float %25, 5.000000e-01
  %27 = fcmp olt float %24, 0.000000e+00
  br i1 %27, label %28, label %34

28:                                               ; preds = %21
  %29 = fneg float %24
  %30 = fpext float %29 to double
  %31 = tail call double @pow(double noundef %30, double noundef 0x3FD5555560000000) #32, !tbaa !17
  %32 = fptrunc double %31 to float
  %33 = fneg float %32
  br label %stbtt__cuberoot.exit

34:                                               ; preds = %21
  %35 = fpext float %24 to double
  %36 = tail call double @pow(double noundef %35, double noundef 0x3FD5555560000000) #32, !tbaa !17
  %37 = fptrunc double %36 to float
  br label %stbtt__cuberoot.exit

stbtt__cuberoot.exit:                             ; preds = %28, %34
  %.0.i = phi float [ %33, %28 ], [ %37, %34 ]
  %38 = fcmp olt float %26, 0.000000e+00
  br i1 %38, label %39, label %45

39:                                               ; preds = %stbtt__cuberoot.exit
  %40 = fneg float %26
  %41 = fpext float %40 to double
  %42 = tail call double @pow(double noundef %41, double noundef 0x3FD5555560000000) #32, !tbaa !17
  %43 = fptrunc double %42 to float
  %44 = fneg float %43
  br label %stbtt__cuberoot.exit49

45:                                               ; preds = %stbtt__cuberoot.exit
  %46 = fpext float %26 to double
  %47 = tail call double @pow(double noundef %46, double noundef 0x3FD5555560000000) #32, !tbaa !17
  %48 = fptrunc double %47 to float
  br label %stbtt__cuberoot.exit49

stbtt__cuberoot.exit49:                           ; preds = %39, %45
  %.0.i48 = phi float [ %44, %39 ], [ %48, %45 ]
  %49 = fadd float %5, %.0.i
  %50 = fadd float %49, %.0.i48
  store float %50, ptr %3, align 4, !tbaa !71
  br label %79

51:                                               ; preds = %4
  %52 = fdiv float %8, -3.000000e+00
  %sqrtf = tail call float @sqrtf(float noundef %52) #15
  %53 = fdiv float -2.700000e+01, %16
  %54 = fpext float %53 to double
  %55 = tail call double @sqrt(double noundef %54) #32, !tbaa !17
  %56 = fneg double %55
  %57 = fpext float %14 to double
  %58 = fmul double %57, %56
  %59 = fmul double %58, 5.000000e-01
  %60 = tail call double @acos(double noundef %59) #32, !tbaa !17
  %61 = fptrunc double %60 to float
  %62 = fdiv float %61, 3.000000e+00
  %63 = fpext float %62 to double
  %64 = tail call double @cos(double noundef %63) #32, !tbaa !17
  %65 = fptrunc double %64 to float
  %66 = fadd double %63, 0xBFF921FAFC8B007A
  %67 = tail call double @cos(double noundef %66) #32, !tbaa !17
  %68 = fptrunc double %67 to float
  %69 = fmul float %68, 0x3FFBB67AE0000000
  %70 = fmul float %sqrtf, 2.000000e+00
  %71 = tail call float @llvm.fmuladd.f32(float %70, float %65, float %5)
  store float %71, ptr %3, align 4, !tbaa !71
  %72 = fadd float %69, %65
  %73 = fneg float %sqrtf
  %74 = tail call float @llvm.fmuladd.f32(float %73, float %72, float %5)
  %75 = getelementptr inbounds nuw i8, ptr %3, i64 4
  store float %74, ptr %75, align 4, !tbaa !71
  %76 = fsub float %65, %69
  %77 = tail call float @llvm.fmuladd.f32(float %73, float %76, float %5)
  %78 = getelementptr inbounds nuw i8, ptr %3, i64 8
  store float %77, ptr %78, align 4, !tbaa !71
  br label %79

79:                                               ; preds = %51, %stbtt__cuberoot.exit49
  %.0 = phi i32 [ 1, %stbtt__cuberoot.exit49 ], [ 3, %51 ]
  ret i32 %.0
}